target datalayout = "e-m:e-p270:32:32-p271:32:32-p272:64:64-i64:64-f80:128-n8:16:32:64-S128"
target triple = "x86_64-pc-linux-gnu"

%struct.space = type { float, i32, i32 }

@.str = private unnamed_addr constant [3 x i8] c"%d\00", align 1
@.str.1 = private unnamed_addr constant [9 x i8] c"%d %d %d\00", align 1
@.str.2 = private unnamed_addr constant [10 x i8] c" %d %d %d\00", align 1
@juli = common dso_local global [100 x %struct.space] zeroinitializer, align 16
@cache = common dso_local global %struct.space zeroinitializer, align 4
@.str.3 = private unnamed_addr constant [28 x i8] c"(%d,%d,%d)-(%d,%d,%d)=%.2f\0A\00", align 1

; Function Attrs: noinline nounwind uwtable
define dso_local i32 @main() #0 {
  %1 = alloca i32, align 4
  %2 = alloca [10 x [3 x i32]], align 16
  %3 = alloca i32, align 4
  %4 = alloca i32, align 4
  %5 = alloca i32, align 4
  %6 = alloca i32, align 4
  %7 = alloca i32, align 4
  %8 = alloca i32, align 4
  store i32 0, i32* %1, align 4
  store i32 0, i32* %5, align 4
  %9 = call i32 (i8*, ...) @__isoc99_scanf(i8* getelementptr inbounds ([3 x i8], [3 x i8]* @.str, i64 0, i64 0), i32* %6)
  %10 = getelementptr inbounds [10 x [3 x i32]], [10 x [3 x i32]]* %2, i64 0, i64 0
  %11 = getelementptr inbounds [3 x i32], [3 x i32]* %10, i64 0, i64 0
  %12 = getelementptr inbounds [10 x [3 x i32]], [10 x [3 x i32]]* %2, i64 0, i64 0
  %13 = getelementptr inbounds [3 x i32], [3 x i32]* %12, i64 0, i64 1
  %14 = getelementptr inbounds [10 x [3 x i32]], [10 x [3 x i32]]* %2, i64 0, i64 0
  %15 = getelementptr inbounds [3 x i32], [3 x i32]* %14, i64 0, i64 2
  %16 = call i32 (i8*, ...) @__isoc99_scanf(i8* getelementptr inbounds ([9 x i8], [9 x i8]* @.str.1, i64 0, i64 0), i32* %11, i32* %13, i32* %15)
  store i32 1, i32* %3, align 4
  br label %17

17:                                               ; preds = %35, %0
  %18 = load i32, i32* %3, align 4
  %19 = load i32, i32* %6, align 4
  %20 = icmp slt i32 %18, %19
  br i1 %20, label %21, label %38

21:                                               ; preds = %17
  %22 = load i32, i32* %3, align 4
  %23 = sext i32 %22 to i64
  %24 = getelementptr inbounds [10 x [3 x i32]], [10 x [3 x i32]]* %2, i64 0, i64 %23
  %25 = getelementptr inbounds [3 x i32], [3 x i32]* %24, i64 0, i64 0
  %26 = load i32, i32* %3, align 4
  %27 = sext i32 %26 to i64
  %28 = getelementptr inbounds [10 x [3 x i32]], [10 x [3 x i32]]* %2, i64 0, i64 %27
  %29 = getelementptr inbounds [3 x i32], [3 x i32]* %28, i64 0, i64 1
  %30 = load i32, i32* %3, align 4
  %31 = sext i32 %30 to i64
  %32 = getelementptr inbounds [10 x [3 x i32]], [10 x [3 x i32]]* %2, i64 0, i64 %31
  %33 = getelementptr inbounds [3 x i32], [3 x i32]* %32, i64 0, i64 2
  %34 = call i32 (i8*, ...) @__isoc99_scanf(i8* getelementptr inbounds ([10 x i8], [10 x i8]* @.str.2, i64 0, i64 0), i32* %25, i32* %29, i32* %33)
  br label %35

35:                                               ; preds = %21
  %36 = load i32, i32* %3, align 4
  %37 = add nsw i32 %36, 1
  store i32 %37, i32* %3, align 4
  br label %17

38:                                               ; preds = %17
  store i32 0, i32* %3, align 4
  store i32 0, i32* %4, align 4
  br label %39

39:                                               ; preds = %151, %38
  %40 = load i32, i32* %3, align 4
  %41 = load i32, i32* %5, align 4
  %42 = sext i32 %41 to i64
  %43 = getelementptr inbounds [100 x %struct.space], [100 x %struct.space]* @juli, i64 0, i64 %42
  %44 = getelementptr inbounds %struct.space, %struct.space* %43, i32 0, i32 1
  store i32 %40, i32* %44, align 4
  %45 = load i32, i32* %4, align 4
  %46 = load i32, i32* %5, align 4
  %47 = sext i32 %46 to i64
  %48 = getelementptr inbounds [100 x %struct.space], [100 x %struct.space]* @juli, i64 0, i64 %47
  %49 = getelementptr inbounds %struct.space, %struct.space* %48, i32 0, i32 2
  store i32 %45, i32* %49, align 4
  %50 = load i32, i32* %3, align 4
  %51 = sext i32 %50 to i64
  %52 = getelementptr inbounds [10 x [3 x i32]], [10 x [3 x i32]]* %2, i64 0, i64 %51
  %53 = getelementptr inbounds [3 x i32], [3 x i32]* %52, i64 0, i64 0
  %54 = load i32, i32* %53, align 4
  %55 = load i32, i32* %4, align 4
  %56 = sext i32 %55 to i64
  %57 = getelementptr inbounds [10 x [3 x i32]], [10 x [3 x i32]]* %2, i64 0, i64 %56
  %58 = getelementptr inbounds [3 x i32], [3 x i32]* %57, i64 0, i64 0
  %59 = load i32, i32* %58, align 4
  %60 = sub nsw i32 %54, %59
  %61 = load i32, i32* %3, align 4
  %62 = sext i32 %61 to i64
  %63 = getelementptr inbounds [10 x [3 x i32]], [10 x [3 x i32]]* %2, i64 0, i64 %62
  %64 = getelementptr inbounds [3 x i32], [3 x i32]* %63, i64 0, i64 0
  %65 = load i32, i32* %64, align 4
  %66 = load i32, i32* %4, align 4
  %67 = sext i32 %66 to i64
  %68 = getelementptr inbounds [10 x [3 x i32]], [10 x [3 x i32]]* %2, i64 0, i64 %67
  %69 = getelementptr inbounds [3 x i32], [3 x i32]* %68, i64 0, i64 0
  %70 = load i32, i32* %69, align 4
  %71 = sub nsw i32 %65, %70
  %72 = mul nsw i32 %60, %71
  %73 = load i32, i32* %3, align 4
  %74 = sext i32 %73 to i64
  %75 = getelementptr inbounds [10 x [3 x i32]], [10 x [3 x i32]]* %2, i64 0, i64 %74
  %76 = getelementptr inbounds [3 x i32], [3 x i32]* %75, i64 0, i64 1
  %77 = load i32, i32* %76, align 4
  %78 = load i32, i32* %4, align 4
  %79 = sext i32 %78 to i64
  %80 = getelementptr inbounds [10 x [3 x i32]], [10 x [3 x i32]]* %2, i64 0, i64 %79
  %81 = getelementptr inbounds [3 x i32], [3 x i32]* %80, i64 0, i64 1
  %82 = load i32, i32* %81, align 4
  %83 = sub nsw i32 %77, %82
  %84 = load i32, i32* %3, align 4
  %85 = sext i32 %84 to i64
  %86 = getelementptr inbounds [10 x [3 x i32]], [10 x [3 x i32]]* %2, i64 0, i64 %85
  %87 = getelementptr inbounds [3 x i32], [3 x i32]* %86, i64 0, i64 1
  %88 = load i32, i32* %87, align 4
  %89 = load i32, i32* %4, align 4
  %90 = sext i32 %89 to i64
  %91 = getelementptr inbounds [10 x [3 x i32]], [10 x [3 x i32]]* %2, i64 0, i64 %90
  %92 = getelementptr inbounds [3 x i32], [3 x i32]* %91, i64 0, i64 1
  %93 = load i32, i32* %92, align 4
  %94 = sub nsw i32 %88, %93
  %95 = mul nsw i32 %83, %94
  %96 = add nsw i32 %72, %95
  %97 = load i32, i32* %3, align 4
  %98 = sext i32 %97 to i64
  %99 = getelementptr inbounds [10 x [3 x i32]], [10 x [3 x i32]]* %2, i64 0, i64 %98
  %100 = getelementptr inbounds [3 x i32], [3 x i32]* %99, i64 0, i64 2
  %101 = load i32, i32* %100, align 4
  %102 = load i32, i32* %4, align 4
  %103 = sext i32 %102 to i64
  %104 = getelementptr inbounds [10 x [3 x i32]], [10 x [3 x i32]]* %2, i64 0, i64 %103
  %105 = getelementptr inbounds [3 x i32], [3 x i32]* %104, i64 0, i64 2
  %106 = load i32, i32* %105, align 4
  %107 = sub nsw i32 %101, %106
  %108 = load i32, i32* %3, align 4
  %109 = sext i32 %108 to i64
  %110 = getelementptr inbounds [10 x [3 x i32]], [10 x [3 x i32]]* %2, i64 0, i64 %109
  %111 = getelementptr inbounds [3 x i32], [3 x i32]* %110, i64 0, i64 2
  %112 = load i32, i32* %111, align 4
  %113 = load i32, i32* %4, align 4
  %114 = sext i32 %113 to i64
  %115 = getelementptr inbounds [10 x [3 x i32]], [10 x [3 x i32]]* %2, i64 0, i64 %114
  %116 = getelementptr inbounds [3 x i32], [3 x i32]* %115, i64 0, i64 2
  %117 = load i32, i32* %116, align 4
  %118 = sub nsw i32 %112, %117
  %119 = mul nsw i32 %107, %118
  %120 = add nsw i32 %96, %119
  %121 = sitofp i32 %120 to double
  %122 = call double @sqrt(double %121) #4
  %123 = fptrunc double %122 to float
  %124 = load i32, i32* %5, align 4
  %125 = sext i32 %124 to i64
  %126 = getelementptr inbounds [100 x %struct.space], [100 x %struct.space]* @juli, i64 0, i64 %125
  %127 = getelementptr inbounds %struct.space, %struct.space* %126, i32 0, i32 0
  store float %123, float* %127, align 4
  %128 = load i32, i32* %5, align 4
  %129 = add nsw i32 %128, 1
  store i32 %129, i32* %5, align 4
  %130 = load i32, i32* %3, align 4
  %131 = load i32, i32* %6, align 4
  %132 = sub nsw i32 %131, 1
  %133 = icmp eq i32 %130, %132
  br i1 %133, label %134, label %140

134:                                              ; preds = %39
  %135 = load i32, i32* %4, align 4
  %136 = load i32, i32* %6, align 4
  %137 = sub nsw i32 %136, 1
  %138 = icmp eq i32 %135, %137
  br i1 %138, label %139, label %140

139:                                              ; preds = %134
  br label %152

140:                                              ; preds = %134, %39
  %141 = load i32, i32* %4, align 4
  %142 = load i32, i32* %6, align 4
  %143 = sub nsw i32 %142, 1
  %144 = icmp eq i32 %141, %143
  br i1 %144, label %145, label %148

145:                                              ; preds = %140
  %146 = load i32, i32* %3, align 4
  %147 = add nsw i32 %146, 1
  store i32 %147, i32* %3, align 4
  store i32 0, i32* %4, align 4
  br label %151

148:                                              ; preds = %140
  %149 = load i32, i32* %4, align 4
  %150 = add nsw i32 %149, 1
  store i32 %150, i32* %4, align 4
  br label %151

151:                                              ; preds = %148, %145
  br label %39

152:                                              ; preds = %139
  store i32 0, i32* %3, align 4
  br label %153

153:                                              ; preds = %205, %152
  %154 = load i32, i32* %3, align 4
  %155 = load i32, i32* %6, align 4
  %156 = load i32, i32* %6, align 4
  %157 = mul nsw i32 %155, %156
  %158 = icmp slt i32 %154, %157
  br i1 %158, label %159, label %208

159:                                              ; preds = %153
  store i32 0, i32* %5, align 4
  br label %160

160:                                              ; preds = %201, %159
  %161 = load i32, i32* %5, align 4
  %162 = load i32, i32* %6, align 4
  %163 = load i32, i32* %6, align 4
  %164 = mul nsw i32 %162, %163
  %165 = load i32, i32* %3, align 4
  %166 = sub nsw i32 %164, %165
  %167 = icmp slt i32 %161, %166
  br i1 %167, label %168, label %204

168:                                              ; preds = %160
  %169 = load i32, i32* %5, align 4
  %170 = sext i32 %169 to i64
  %171 = getelementptr inbounds [100 x %struct.space], [100 x %struct.space]* @juli, i64 0, i64 %170
  %172 = getelementptr inbounds %struct.space, %struct.space* %171, i32 0, i32 0
  %173 = load float, float* %172, align 4
  %174 = load i32, i32* %5, align 4
  %175 = add nsw i32 %174, 1
  %176 = sext i32 %175 to i64
  %177 = getelementptr inbounds [100 x %struct.space], [100 x %struct.space]* @juli, i64 0, i64 %176
  %178 = getelementptr inbounds %struct.space, %struct.space* %177, i32 0, i32 0
  %179 = load float, float* %178, align 4
  %180 = fcmp olt float %173, %179
  br i1 %180, label %181, label %200

181:                                              ; preds = %168
  %182 = load i32, i32* %5, align 4
  %183 = add nsw i32 %182, 1
  %184 = sext i32 %183 to i64
  %185 = getelementptr inbounds [100 x %struct.space], [100 x %struct.space]* @juli, i64 0, i64 %184
  %186 = bitcast %struct.space* %185 to i8*
  call void @llvm.memcpy.p0i8.p0i8.i64(i8* align 4 bitcast (%struct.space* @cache to i8*), i8* align 4 %186, i64 12, i1 false)
  %187 = load i32, i32* %5, align 4
  %188 = add nsw i32 %187, 1
  %189 = sext i32 %188 to i64
  %190 = getelementptr inbounds [100 x %struct.space], [100 x %struct.space]* @juli, i64 0, i64 %189
  %191 = load i32, i32* %5, align 4
  %192 = sext i32 %191 to i64
  %193 = getelementptr inbounds [100 x %struct.space], [100 x %struct.space]* @juli, i64 0, i64 %192
  %194 = bitcast %struct.space* %190 to i8*
  %195 = bitcast %struct.space* %193 to i8*
  call void @llvm.memcpy.p0i8.p0i8.i64(i8* align 4 %194, i8* align 4 %195, i64 12, i1 false)
  %196 = load i32, i32* %5, align 4
  %197 = sext i32 %196 to i64
  %198 = getelementptr inbounds [100 x %struct.space], [100 x %struct.space]* @juli, i64 0, i64 %197
  %199 = bitcast %struct.space* %198 to i8*
  call void @llvm.memcpy.p0i8.p0i8.i64(i8* align 4 %199, i8* align 4 bitcast (%struct.space* @cache to i8*), i64 12, i1 false)
  br label %200

200:                                              ; preds = %181, %168
  br label %201

201:                                              ; preds = %200
  %202 = load i32, i32* %5, align 4
  %203 = add nsw i32 %202, 1
  store i32 %203, i32* %5, align 4
  br label %160

204:                                              ; preds = %160
  br label %205

205:                                              ; preds = %204
  %206 = load i32, i32* %3, align 4
  %207 = add nsw i32 %206, 1
  store i32 %207, i32* %3, align 4
  br label %153

208:                                              ; preds = %153
  store i32 0, i32* %3, align 4
  br label %209

209:                                              ; preds = %277, %208
  %210 = load i32, i32* %3, align 4
  %211 = load i32, i32* %6, align 4
  %212 = load i32, i32* %6, align 4
  %213 = mul nsw i32 %211, %212
  %214 = icmp slt i32 %210, %213
  br i1 %214, label %215, label %280

215:                                              ; preds = %209
  %216 = load i32, i32* %3, align 4
  %217 = sext i32 %216 to i64
  %218 = getelementptr inbounds [100 x %struct.space], [100 x %struct.space]* @juli, i64 0, i64 %217
  %219 = getelementptr inbounds %struct.space, %struct.space* %218, i32 0, i32 1
  %220 = load i32, i32* %219, align 4
  %221 = load i32, i32* %3, align 4
  %222 = sext i32 %221 to i64
  %223 = getelementptr inbounds [100 x %struct.space], [100 x %struct.space]* @juli, i64 0, i64 %222
  %224 = getelementptr inbounds %struct.space, %struct.space* %223, i32 0, i32 2
  %225 = load i32, i32* %224, align 4
  %226 = icmp sge i32 %220, %225
  br i1 %226, label %227, label %228

227:                                              ; preds = %215
  br label %277

228:                                              ; preds = %215
  %229 = load i32, i32* %3, align 4
  %230 = sext i32 %229 to i64
  %231 = getelementptr inbounds [100 x %struct.space], [100 x %struct.space]* @juli, i64 0, i64 %230
  %232 = getelementptr inbounds %struct.space, %struct.space* %231, i32 0, i32 1
  %233 = load i32, i32* %232, align 4
  store i32 %233, i32* %7, align 4
  %234 = load i32, i32* %3, align 4
  %235 = sext i32 %234 to i64
  %236 = getelementptr inbounds [100 x %struct.space], [100 x %struct.space]* @juli, i64 0, i64 %235
  %237 = getelementptr inbounds %struct.space, %struct.space* %236, i32 0, i32 2
  %238 = load i32, i32* %237, align 4
  store i32 %238, i32* %8, align 4
  %239 = load i32, i32* %7, align 4
  %240 = sext i32 %239 to i64
  %241 = getelementptr inbounds [10 x [3 x i32]], [10 x [3 x i32]]* %2, i64 0, i64 %240
  %242 = getelementptr inbounds [3 x i32], [3 x i32]* %241, i64 0, i64 0
  %243 = load i32, i32* %242, align 4
  %244 = load i32, i32* %7, align 4
  %245 = sext i32 %244 to i64
  %246 = getelementptr inbounds [10 x [3 x i32]], [10 x [3 x i32]]* %2, i64 0, i64 %245
  %247 = getelementptr inbounds [3 x i32], [3 x i32]* %246, i64 0, i64 1
  %248 = load i32, i32* %247, align 4
  %249 = load i32, i32* %7, align 4
  %250 = sext i32 %249 to i64
  %251 = getelementptr inbounds [10 x [3 x i32]], [10 x [3 x i32]]* %2, i64 0, i64 %250
  %252 = getelementptr inbounds [3 x i32], [3 x i32]* %251, i64 0, i64 2
  %253 = load i32, i32* %252, align 4
  %254 = load i32, i32* %8, align 4
  %255 = sext i32 %254 to i64
  %256 = getelementptr inbounds [10 x [3 x i32]], [10 x [3 x i32]]* %2, i64 0, i64 %255
  %257 = getelementptr inbounds [3 x i32], [3 x i32]* %256, i64 0, i64 0
  %258 = load i32, i32* %257, align 4
  %259 = load i32, i32* %8, align 4
  %260 = sext i32 %259 to i64
  %261 = getelementptr inbounds [10 x [3 x i32]], [10 x [3 x i32]]* %2, i64 0, i64 %260
  %262 = getelementptr inbounds [3 x i32], [3 x i32]* %261, i64 0, i64 1
  %263 = load i32, i32* %262, align 4
  %264 = load i32, i32* %8, align 4
  %265 = sext i32 %264 to i64
  %266 = getelementptr inbounds [10 x [3 x i32]], [10 x [3 x i32]]* %2, i64 0, i64 %265
  %267 = getelementptr inbounds [3 x i32], [3 x i32]* %266, i64 0, i64 2
  %268 = load i32, i32* %267, align 4
  %269 = load i32, i32* %3, align 4
  %270 = sext i32 %269 to i64
  %271 = getelementptr inbounds [100 x %struct.space], [100 x %struct.space]* @juli, i64 0, i64 %270
  %272 = getelementptr inbounds %struct.space, %struct.space* %271, i32 0, i32 0
  %273 = load float, float* %272, align 4
  %274 = fpext float %273 to double
  %275 = call i32 (i8*, ...) @printf(i8* getelementptr inbounds ([28 x i8], [28 x i8]* @.str.3, i64 0, i64 0), i32 %243, i32 %248, i32 %253, i32 %258, i32 %263, i32 %268, double %274)
  br label %276

276:                                              ; preds = %228
  br label %277

277:                                              ; preds = %276, %227
  %278 = load i32, i32* %3, align 4
  %279 = add nsw i32 %278, 1
  store i32 %279, i32* %3, align 4
  br label %209

280:                                              ; preds = %209
  ret i32 0
}